target datalayout = "e-m:e-p270:32:32-p271:32:32-p272:64:64-i64:64-i128:128-f80:128-n8:16:32:64-S128"
target triple = "x86_64-pc-linux-gnu"

%struct.point_t = type { float, float }
%struct.image_t = type { ptr, ptr, ptr, i32, i32, ptr, float, i32, i32, float, [4 x %struct.point_t], ptr, i32 }

@bb_ref = internal constant [4 x %struct.point_t] [%struct.point_t zeroinitializer, %struct.point_t { float 1.000000e+00, float 0.000000e+00 }, %struct.point_t { float 1.000000e+00, float 1.000000e+00 }, %struct.point_t { float 0.000000e+00, float 1.000000e+00 }], align 16

; Function Attrs: nounwind uwtable
define internal <2 x float> @map_point_to_view(ptr noundef %0, <2 x float> %1) #14 {
  %3 = alloca %struct.point_t, align 4
  %4 = alloca %struct.point_t, align 4
  %5 = alloca ptr, align 8
  store <2 x float> %1, ptr %4, align 4
  store ptr %0, ptr %5, align 8, !tbaa !48
  %6 = getelementptr inbounds nuw %struct.point_t, ptr %4, i32 0, i32 0
  %7 = load float, ptr %6, align 4, !tbaa !113
  %8 = load ptr, ptr %5, align 8, !tbaa !48
  %9 = getelementptr inbounds nuw %struct.image_t, ptr %8, i32 0, i32 3
  %10 = load i32, ptr %9, align 8, !tbaa !115
  %11 = sitofp i32 %10 to float
  %12 = fmul reassoc nsz arcp contract afn float %7, %11
  %13 = load ptr, ptr %5, align 8, !tbaa !48
  %14 = getelementptr inbounds nuw %struct.image_t, ptr %13, i32 0, i32 6
  %15 = load float, ptr %14, align 8, !tbaa !116
  %16 = fdiv reassoc nsz arcp contract afn float %12, %15
  %17 = getelementptr inbounds nuw %struct.point_t, ptr %3, i32 0, i32 0
  store float %16, ptr %17, align 4, !tbaa !113
  %18 = getelementptr inbounds nuw %struct.point_t, ptr %4, i32 0, i32 1
  %19 = load float, ptr %18, align 4, !tbaa !117
  %20 = load ptr, ptr %5, align 8, !tbaa !48
  %21 = getelementptr inbounds nuw %struct.image_t, ptr %20, i32 0, i32 4
  %22 = load i32, ptr %21, align 4, !tbaa !118
  %23 = sitofp i32 %22 to float
  %24 = fmul reassoc nsz arcp contract afn float %19, %23
  %25 = load ptr, ptr %5, align 8, !tbaa !48
  %26 = getelementptr inbounds nuw %struct.image_t, ptr %25, i32 0, i32 6
  %27 = load float, ptr %26, align 8, !tbaa !116
  %28 = fdiv reassoc nsz arcp contract afn float %24, %27
  %29 = getelementptr inbounds nuw %struct.point_t, ptr %3, i32 0, i32 1
  store float %28, ptr %29, align 4, !tbaa !117
  %30 = load <2 x float>, ptr %3, align 4
  ret <2 x float> %30
}

; Function Attrs: nounwind uwtable
define internal void @map_boundingbox_to_view(ptr noundef %0, ptr noundef %1) #14 {
  %3 = alloca ptr, align 8
  %4 = alloca ptr, align 8
  %5 = alloca i32, align 4
  %6 = alloca %struct.point_t, align 4
  store ptr %0, ptr %3, align 8, !tbaa !48
  store ptr %1, ptr %4, align 8, !tbaa !110
  call void @llvm.lifetime.start.p0(i64 4, ptr %5) #15
  store i32 0, ptr %5, align 4, !tbaa !7
  br label %7

7:                                                ; preds = %24, %2
  %8 = load i32, ptr %5, align 4, !tbaa !7
  %9 = icmp slt i32 %8, 4
  br i1 %9, label %11, label %10

10:                                               ; preds = %7
  call void @llvm.lifetime.end.p0(i64 4, ptr %5) #15
  br label %27

11:                                               ; preds = %7
  %12 = load ptr, ptr %4, align 8, !tbaa !110
  %13 = load i32, ptr %5, align 4, !tbaa !7
  %14 = sext i32 %13 to i64
  %15 = getelementptr inbounds %struct.point_t, ptr %12, i64 %14
  call void @llvm.lifetime.start.p0(i64 8, ptr %6) #15
  %16 = load ptr, ptr %3, align 8, !tbaa !48
  %17 = load ptr, ptr %3, align 8, !tbaa !48
  %18 = getelementptr inbounds nuw %struct.image_t, ptr %17, i32 0, i32 10
  %19 = load i32, ptr %5, align 4, !tbaa !7
  %20 = sext i32 %19 to i64
  %21 = getelementptr inbounds [4 x %struct.point_t], ptr %18, i64 0, i64 %20
  %22 = load <2 x float>, ptr %21, align 8
  %23 = call reassoc nsz arcp contract afn <2 x float> @map_point_to_view(ptr noundef %16, <2 x float> %22)
  store <2 x float> %23, ptr %6, align 4
  call void @llvm.memcpy.p0.p0.i64(ptr align 4 %15, ptr align 4 %6, i64 8, i1 false), !tbaa.struct !112
  call void @llvm.lifetime.end.p0(i64 8, ptr %6) #15
  br label %24

24:                                               ; preds = %11
  %25 = load i32, ptr %5, align 4, !tbaa !7
  %26 = add nsw i32 %25, 1
  store i32 %26, ptr %5, align 4, !tbaa !7
  br label %7

27:                                               ; preds = %10
  ret void
}

; Function Attrs: nounwind uwtable
define internal i32 @draw_image_callback(ptr noundef %0, ptr noundef %1, ptr noundef %2) #0 {
  %4 = alloca i32, align 4
  %5 = alloca ptr, align 8
  %6 = alloca ptr, align 8
  %7 = alloca ptr, align 8
  %8 = alloca ptr, align 8
  %9 = alloca ptr, align 8
  %10 = alloca i32, align 4
  %11 = alloca [4 x %struct.point_t], align 16
  %12 = alloca [9 x float], align 16
  store ptr %0, ptr %5, align 8, !tbaa !38
  store ptr %1, ptr %6, align 8, !tbaa !106
  store ptr %2, ptr %7, align 8, !tbaa !62
  call void @llvm.lifetime.start.p0(i64 8, ptr %8) #15
  %13 = load ptr, ptr %7, align 8, !tbaa !62
  store ptr %13, ptr %8, align 8, !tbaa !48
  call void @llvm.lifetime.start.p0(i64 8, ptr %9) #15
  %14 = load ptr, ptr %8, align 8, !tbaa !48
  %15 = getelementptr inbounds nuw %struct.image_t, ptr %14, i32 0, i32 11
  %16 = load ptr, ptr %15, align 8, !tbaa !98
  %17 = load ptr, ptr %16, align 8, !tbaa !108
  store ptr %17, ptr %9, align 8, !tbaa !108
  %18 = load ptr, ptr %6, align 8, !tbaa !106
  call void @clear_background(ptr noundef %18)
  %19 = load ptr, ptr %8, align 8, !tbaa !48
  %20 = getelementptr inbounds nuw %struct.image_t, ptr %19, i32 0, i32 2
  %21 = load ptr, ptr %20, align 8, !tbaa !50
  %22 = icmp ne ptr %21, null
  br i1 %22, label %26, label %23

23:                                               ; preds = %3
  %24 = load ptr, ptr %6, align 8, !tbaa !106
  %25 = load ptr, ptr %5, align 8, !tbaa !38
  call void @draw_no_image(ptr noundef %24, ptr noundef %25)
  store i32 0, ptr %4, align 4
  store i32 1, ptr %10, align 4
  br label %61

26:                                               ; preds = %3
  %27 = load ptr, ptr %6, align 8, !tbaa !106
  %28 = load ptr, ptr %8, align 8, !tbaa !48
  call void @center_image(ptr noundef %27, ptr noundef %28)
  %29 = load ptr, ptr %6, align 8, !tbaa !106
  %30 = load ptr, ptr %8, align 8, !tbaa !48
  call void @draw_image(ptr noundef %29, ptr noundef %30)
  %31 = load ptr, ptr %9, align 8, !tbaa !108
  %32 = icmp ne ptr %31, null
  br i1 %32, label %34, label %33

33:                                               ; preds = %26
  store i32 0, ptr %4, align 4
  store i32 1, ptr %10, align 4
  br label %61

34:                                               ; preds = %26
  call void @llvm.lifetime.start.p0(i64 32, ptr %11) #15
  call void @llvm.lifetime.start.p0(i64 36, ptr %12) #15
  %35 = load ptr, ptr %8, align 8, !tbaa !48
  %36 = getelementptr inbounds [4 x %struct.point_t], ptr %11, i64 0, i64 0
  call void @map_boundingbox_to_view(ptr noundef %35, ptr noundef %36)
  %37 = getelementptr inbounds [4 x %struct.point_t], ptr %11, i64 0, i64 0
  %38 = getelementptr inbounds [9 x float], ptr %12, i64 0, i64 0
  %39 = call i32 @get_homography(ptr noundef @bb_ref, ptr noundef %37, ptr noundef %38)
  %40 = load ptr, ptr %6, align 8, !tbaa !106
  %41 = getelementptr inbounds [4 x %struct.point_t], ptr %11, i64 0, i64 0
  call void @draw_boundingbox(ptr noundef %40, ptr noundef %41)
  %42 = load ptr, ptr %6, align 8, !tbaa !106
  %43 = getelementptr inbounds [9 x float], ptr %12, i64 0, i64 0
  %44 = load ptr, ptr %9, align 8, !tbaa !108
  call void @draw_f_boxes(ptr noundef %42, ptr noundef %43, ptr noundef %44)
  %45 = load ptr, ptr %6, align 8, !tbaa !106
  %46 = getelementptr inbounds [9 x float], ptr %12, i64 0, i64 0
  %47 = load ptr, ptr %9, align 8, !tbaa !108
  call void @draw_d_boxes(ptr noundef %45, ptr noundef %46, ptr noundef %47)
  %48 = load ptr, ptr %6, align 8, !tbaa !106
  %49 = getelementptr inbounds [9 x float], ptr %12, i64 0, i64 0
  %50 = load ptr, ptr %9, align 8, !tbaa !108
  call void @draw_color_boxes_outline(ptr noundef %48, ptr noundef %49, ptr noundef %50)
  %51 = load ptr, ptr %6, align 8, !tbaa !106
  call void @stroke_boxes(ptr noundef %51, float noundef 1.000000e+00)
  %52 = load ptr, ptr %6, align 8, !tbaa !106
  %53 = getelementptr inbounds [9 x float], ptr %12, i64 0, i64 0
  %54 = load ptr, ptr %9, align 8, !tbaa !108
  %55 = load ptr, ptr %8, align 8, !tbaa !48
  %56 = getelementptr inbounds nuw %struct.image_t, ptr %55, i32 0, i32 9
  %57 = load float, ptr %56, align 4, !tbaa !96
  %58 = load ptr, ptr %8, align 8, !tbaa !48
  %59 = getelementptr inbounds nuw %struct.image_t, ptr %58, i32 0, i32 12
  %60 = load i32, ptr %59, align 8, !tbaa !109
  call void @draw_color_boxes_inside(ptr noundef %52, ptr noundef %53, ptr noundef %54, float noundef %57, float noundef 2.000000e+00, i32 noundef %60)
  store i32 0, ptr %4, align 4
  store i32 1, ptr %10, align 4
  call void @llvm.lifetime.end.p0(i64 36, ptr %12) #15
  call void @llvm.lifetime.end.p0(i64 32, ptr %11) #15
  br label %61

61:                                               ; preds = %34, %33, %23
  call void @llvm.lifetime.end.p0(i64 8, ptr %9) #15
  call void @llvm.lifetime.end.p0(i64 8, ptr %8) #15
  %62 = load i32, ptr %4, align 4
  ret i32 %62
}