; Function Attrs: nounwind uwtable
define internal noundef i32 @draw_image_callback(ptr noundef %0, ptr noundef %1, ptr noundef %2) #18 {
  %4 = alloca [4 x %struct.point_t], align 16
  %5 = alloca [9 x float], align 16
  %6 = getelementptr inbounds nuw i8, ptr %2, i64 88
  %7 = load ptr, ptr %6, align 8, !tbaa !36
  %8 = load ptr, ptr %7, align 8, !tbaa !87
  tail call void @clear_background(ptr noundef %1) #24
  %9 = getelementptr inbounds nuw i8, ptr %2, i64 16
  %10 = load ptr, ptr %9, align 8, !tbaa !61
  %.not = icmp eq ptr %10, null
  br i1 %.not, label %11, label %12

11:                                               ; preds = %3
  tail call void @draw_no_image(ptr noundef %1, ptr noundef %0) #24
  br label %38

12:                                               ; preds = %3
  tail call void @center_image(ptr noundef %1, ptr noundef nonnull %2) #24
  tail call void @draw_image(ptr noundef %1, ptr noundef nonnull %2) #24
  %.not24 = icmp eq ptr %8, null
  br i1 %.not24, label %38, label %13

13:                                               ; preds = %12
  call void @llvm.lifetime.start.p0(i64 32, ptr nonnull %4) #24
  call void @llvm.lifetime.start.p0(i64 36, ptr nonnull %5) #24
  %14 = getelementptr inbounds nuw i8, ptr %2, i64 56
  %15 = getelementptr inbounds nuw i8, ptr %2, i64 24
  %16 = getelementptr inbounds nuw i8, ptr %2, i64 40
  %17 = getelementptr inbounds nuw i8, ptr %2, i64 28
  %18 = load i32, ptr %15, align 8, !tbaa !88
  %19 = sitofp i32 %18 to float
  %20 = load float, ptr %16, align 8, !tbaa !89
  %21 = load i32, ptr %17, align 4, !tbaa !90
  %22 = sitofp i32 %21 to float
  %23 = fdiv reassoc nsz arcp contract afn float 1.000000e+00, %20
  %24 = fdiv reassoc nsz arcp contract afn float 1.000000e+00, %20
  br label %25

25:                                               ; preds = %25, %13
  %indvars.iv.i = phi i64 [ 0, %13 ], [ %indvars.iv.next.i, %25 ]
  %26 = getelementptr inbounds nuw %struct.point_t, ptr %4, i64 %indvars.iv.i
  %27 = getelementptr inbounds nuw [4 x %struct.point_t], ptr %14, i64 0, i64 %indvars.iv.i
  %28 = load <2 x float>, ptr %27, align 8
  %.sroa.0.0.vec.extract.i.i = extractelement <2 x float> %28, i64 0
  %29 = fmul reassoc nsz arcp contract afn float %.sroa.0.0.vec.extract.i.i, %19
  %30 = fmul reassoc nsz arcp contract afn float %29, %23
  %.sroa.04.0.vec.insert.i.i = insertelement <2 x float> poison, float %30, i64 0
  %.sroa.0.4.vec.extract.i.i = extractelement <2 x float> %28, i64 1
  %31 = fmul reassoc nsz arcp contract afn float %.sroa.0.4.vec.extract.i.i, %22
  %32 = fmul reassoc nsz arcp contract afn float %31, %24
  %.sroa.04.4.vec.insert.i.i = insertelement <2 x float> %.sroa.04.0.vec.insert.i.i, float %32, i64 1
  store <2 x float> %.sroa.04.4.vec.insert.i.i, ptr %26, align 8
  %indvars.iv.next.i = add nuw nsw i64 %indvars.iv.i, 1
  %exitcond.not.i = icmp eq i64 %indvars.iv.next.i, 4
  br i1 %exitcond.not.i, label %map_boundingbox_to_view.exit, label %25

map_boundingbox_to_view.exit:                     ; preds = %25
  %33 = call i32 @get_homography(ptr noundef nonnull @bb_ref, ptr noundef nonnull %4, ptr noundef nonnull %5) #24
  call void @draw_boundingbox(ptr noundef %1, ptr noundef nonnull %4) #24
  call void @draw_f_boxes(ptr noundef %1, ptr noundef nonnull %5, ptr noundef nonnull %8) #24
  call void @draw_d_boxes(ptr noundef %1, ptr noundef nonnull %5, ptr noundef nonnull %8) #24
  call void @draw_color_boxes_outline(ptr noundef %1, ptr noundef nonnull %5, ptr noundef nonnull %8) #24
  call void @stroke_boxes(ptr noundef %1, float noundef 1.000000e+00) #24
  %34 = getelementptr inbounds nuw i8, ptr %2, i64 52
  %35 = load float, ptr %34, align 4, !tbaa !83
  %36 = getelementptr inbounds nuw i8, ptr %2, i64 96
  %37 = load i32, ptr %36, align 8, !tbaa !91
  call void @draw_color_boxes_inside(ptr noundef %1, ptr noundef nonnull %5, ptr noundef nonnull %8, float noundef %35, float noundef 2.000000e+00, i32 noundef %37) #24
  call void @llvm.lifetime.end.p0(i64 36, ptr nonnull %5) #24
  call void @llvm.lifetime.end.p0(i64 32, ptr nonnull %4) #24
  br label %38

38:                                               ; preds = %12, %map_boundingbox_to_view.exit, %11
  ret i32 0
}